target datalayout = "e-m:e-p270:32:32-p271:32:32-p272:64:64-i64:64-i128:128-f80:128-n8:16:32:64-S128"
target triple = "x86_64-pc-linux-gnu"

@.str.2 = private unnamed_addr constant [11 x i8] c"plpgsql-18\00", align 1
@.str.4 = private unnamed_addr constant [10 x i8] c"pl_gram.y\00", align 1
@.str.120 = private unnamed_addr constant [45 x i8] c"end label \22%s\22 specified for unlabeled block\00", align 1
@__func__.check_labels = private unnamed_addr constant [13 x i8] c"check_labels\00", align 1
@.str.121 = private unnamed_addr constant [47 x i8] c"end label \22%s\22 differs from block's label \22%s\22\00", align 1

; Function Attrs: nounwind uwtable
define internal void @check_labels(ptr noundef %0, ptr noundef %1, i32 noundef %2, ptr noundef %3) #0 {
  %5 = alloca ptr, align 8
  %6 = alloca ptr, align 8
  %7 = alloca i32, align 4
  %8 = alloca ptr, align 8
  store ptr %0, ptr %5, align 8
  store ptr %1, ptr %6, align 8
  store i32 %2, ptr %7, align 4
  store ptr %3, ptr %8, align 8
  %9 = load ptr, ptr %6, align 8
  %10 = icmp ne ptr %9, null
  br i1 %10, label %11, label %51

11:                                               ; preds = %4
  %12 = load ptr, ptr %5, align 8
  %13 = icmp ne ptr %12, null
  br i1 %13, label %29, label %14

14:                                               ; preds = %11
  br label %15

15:                                               ; preds = %14
  br i1 true, label %16, label %18

16:                                               ; preds = %15
  %17 = call zeroext i1 @errstart_cold(i32 noundef 21, ptr noundef @.str.2) #12
  br i1 %17, label %20, label %27

18:                                               ; preds = %15
  %19 = call zeroext i1 @errstart(i32 noundef 21, ptr noundef @.str.2)
  br i1 %19, label %20, label %27

20:                                               ; preds = %18, %16
  %21 = call i32 @errcode(i32 noundef 16801924)
  %22 = load ptr, ptr %6, align 8
  %23 = call i32 (ptr, ...) @errmsg(ptr noundef @.str.120, ptr noundef %22)
  %24 = load i32, ptr %7, align 4
  %25 = load ptr, ptr %8, align 8
  %26 = call i32 @plpgsql_scanner_errposition(i32 noundef %24, ptr noundef %25)
  call void @errfinish(ptr noundef @.str.4, i32 noundef 3886, ptr noundef @__func__.check_labels)
  br label %27

27:                                               ; preds = %20, %18, %16
  unreachable

28:                                               ; No predecessors!
  br label %29

29:                                               ; preds = %28, %11
  %30 = load ptr, ptr %5, align 8
  %31 = load ptr, ptr %6, align 8
  %32 = call i32 @strcmp(ptr noundef %30, ptr noundef %31) #11
  %33 = icmp ne i32 %32, 0
  br i1 %33, label %34, label %50

34:                                               ; preds = %29
  br label %35

35:                                               ; preds = %34
  br i1 true, label %36, label %38

36:                                               ; preds = %35
  %37 = call zeroext i1 @errstart_cold(i32 noundef 21, ptr noundef @.str.2) #12
  br i1 %37, label %40, label %48

38:                                               ; preds = %35
  %39 = call zeroext i1 @errstart(i32 noundef 21, ptr noundef @.str.2)
  br i1 %39, label %40, label %48

40:                                               ; preds = %38, %36
  %41 = call i32 @errcode(i32 noundef 16801924)
  %42 = load ptr, ptr %6, align 8
  %43 = load ptr, ptr %5, align 8
  %44 = call i32 (ptr, ...) @errmsg(ptr noundef @.str.121, ptr noundef %42, ptr noundef %43)
  %45 = load i32, ptr %7, align 4
  %46 = load ptr, ptr %8, align 8
  %47 = call i32 @plpgsql_scanner_errposition(i32 noundef %45, ptr noundef %46)
  call void @errfinish(ptr noundef @.str.4, i32 noundef 3893, ptr noundef @__func__.check_labels)
  br label %48

48:                                               ; preds = %40, %38, %36
  unreachable

49:                                               ; No predecessors!
  br label %50

50:                                               ; preds = %49, %29
  br label %51

51:                                               ; preds = %50, %4
  ret void
}