; Function Attrs: nounwind uwtable
define internal fastcc void @check_labels(ptr noundef %0, ptr noundef %1, i32 noundef %2, ptr noundef %3) unnamed_addr #0 {
  %.not = icmp eq ptr %1, null
  br i1 %.not, label %18, label %5

5:                                                ; preds = %4
  %.not11 = icmp eq ptr %0, null
  br i1 %.not11, label %6, label %11

6:                                                ; preds = %5
  %7 = tail call zeroext i1 @errstart_cold(i32 noundef 21, ptr noundef nonnull @.str.2) #14
  tail call void @llvm.assume(i1 %7)
  %8 = tail call i32 @errcode(i32 noundef 16801924) #12
  %9 = tail call i32 (ptr, ...) @errmsg(ptr noundef nonnull @.str.120, ptr noundef nonnull %1) #12
  %10 = tail call i32 @plpgsql_scanner_errposition(i32 noundef %2, ptr noundef %3) #12
  tail call void @errfinish(ptr noundef nonnull @.str.4, i32 noundef 3886, ptr noundef nonnull @__func__.check_labels) #12
  unreachable

11:                                               ; preds = %5
  %12 = tail call i32 @strcmp(ptr noundef nonnull dereferenceable(1) %0, ptr noundef nonnull dereferenceable(1) %1) #13
  %.not12 = icmp eq i32 %12, 0
  br i1 %.not12, label %18, label %13

13:                                               ; preds = %11
  %14 = tail call zeroext i1 @errstart_cold(i32 noundef 21, ptr noundef nonnull @.str.2) #14
  tail call void @llvm.assume(i1 %14)
  %15 = tail call i32 @errcode(i32 noundef 16801924) #12
  %16 = tail call i32 (ptr, ...) @errmsg(ptr noundef nonnull @.str.121, ptr noundef nonnull %1, ptr noundef nonnull %0) #12
  %17 = tail call i32 @plpgsql_scanner_errposition(i32 noundef %2, ptr noundef %3) #12
  tail call void @errfinish(ptr noundef nonnull @.str.4, i32 noundef 3893, ptr noundef nonnull @__func__.check_labels) #12
  unreachable

18:                                               ; preds = %11, %4
  ret void
}